; Function Attrs: nounwind uwtable
define dso_local void @ProcWakeup(ptr noundef %0, i32 noundef %1) local_unnamed_addr #0 {
  %3 = getelementptr i8, ptr %0, i64 8
  %.val = load ptr, ptr %3, align 8
  %4 = icmp eq ptr %.val, null
  br i1 %4, label %18, label %5

5:                                                ; preds = %2
  %6 = getelementptr inbounds nuw i8, ptr %0, i64 112
  %7 = load ptr, ptr %6, align 8
  %8 = load ptr, ptr %0, align 8
  %9 = getelementptr inbounds nuw i8, ptr %8, i64 8
  store ptr %.val, ptr %9, align 8
  %10 = load ptr, ptr %0, align 8
  store ptr %10, ptr %.val, align 8
  tail call void @llvm.memset.p0.i64(ptr noundef nonnull align 8 dereferenceable(16) %0, i8 0, i64 16, i1 false)
  %11 = getelementptr inbounds nuw i8, ptr %7, i64 56
  %12 = load i32, ptr %11, align 8
  %13 = add i32 %12, -1
  store i32 %13, ptr %11, align 8
  %14 = getelementptr inbounds nuw i8, ptr %0, i64 32
  tail call void @llvm.memset.p0.i64(ptr noundef nonnull align 8 dereferenceable(16) %6, i8 0, i64 16, i1 false)
  store i32 %1, ptr %14, align 8
  %15 = load ptr, ptr @MyProc, align 8
  %16 = getelementptr inbounds nuw i8, ptr %15, i64 136
  store volatile i64 0, ptr %16, align 8
  %17 = getelementptr inbounds nuw i8, ptr %0, i64 36
  tail call void @SetLatch(ptr noundef nonnull %17) #14
  br label %18

18:                                               ; preds = %2, %5
  ret void
}